target datalayout = "e-m:e-p270:32:32-p271:32:32-p272:64:64-i64:64-i128:128-f80:128-n8:16:32:64-S128"
target triple = "x86_64-pc-linux-gnu"

%struct._Node = type { %union.anon.2 }
%union.anon.2 = type { %struct.BagNode }
%struct.BagNode = type { i32, i32, ptr, ptr, i32, %union.anon.4, i32, i32, i32, i32, i32 }
%union.anon.4 = type { %struct.anon.7 }
%struct.anon.7 = type { ptr, ptr }
%struct.StrNode = type { i32, i32, ptr, ptr, ptr, i32, [24 x i8], i32 }

; Function Attrs: nounwind uwtable
define internal i32 @node_str_remove_char(ptr noundef %0, i8 noundef zeroext %1) #0 {
  %3 = alloca ptr, align 8
  %4 = alloca i8, align 1
  %5 = alloca ptr, align 8
  %6 = alloca i32, align 4
  %7 = alloca ptr, align 8
  %8 = alloca ptr, align 8
  store ptr %0, ptr %3, align 8, !tbaa !111
  store i8 %1, ptr %4, align 1, !tbaa !12
  call void @llvm.lifetime.start.p0(i64 8, ptr %5) #8
  call void @llvm.lifetime.start.p0(i64 4, ptr %6) #8
  store i32 0, ptr %6, align 4, !tbaa !10
  %9 = load ptr, ptr %3, align 8, !tbaa !111
  %10 = getelementptr inbounds nuw %struct._Node, ptr %9, i32 0, i32 0
  %11 = getelementptr inbounds nuw %struct.StrNode, ptr %10, i32 0, i32 3
  %12 = load ptr, ptr %11, align 8, !tbaa !12
  store ptr %12, ptr %5, align 8, !tbaa !4
  br label %13

13:                                               ; preds = %57, %2
  %14 = load ptr, ptr %5, align 8, !tbaa !4
  %15 = load ptr, ptr %3, align 8, !tbaa !111
  %16 = getelementptr inbounds nuw %struct._Node, ptr %15, i32 0, i32 0
  %17 = getelementptr inbounds nuw %struct.StrNode, ptr %16, i32 0, i32 4
  %18 = load ptr, ptr %17, align 8, !tbaa !12
  %19 = icmp ult ptr %14, %18
  br i1 %19, label %20, label %58

20:                                               ; preds = %13
  %21 = load ptr, ptr %5, align 8, !tbaa !4
  %22 = load i8, ptr %21, align 1, !tbaa !12
  %23 = zext i8 %22 to i32
  %24 = load i8, ptr %4, align 1, !tbaa !12
  %25 = zext i8 %24 to i32
  %26 = icmp eq i32 %23, %25
  br i1 %26, label %27, label %54

27:                                               ; preds = %20
  call void @llvm.lifetime.start.p0(i64 8, ptr %7) #8
  call void @llvm.lifetime.start.p0(i64 8, ptr %8) #8
  %28 = load ptr, ptr %5, align 8, !tbaa !4
  store ptr %28, ptr %8, align 8, !tbaa !4
  store ptr %28, ptr %7, align 8, !tbaa !4
  %29 = load ptr, ptr %8, align 8, !tbaa !4
  %30 = getelementptr inbounds nuw i8, ptr %29, i32 1
  store ptr %30, ptr %8, align 8, !tbaa !4
  br label %31

31:                                               ; preds = %38, %27
  %32 = load ptr, ptr %8, align 8, !tbaa !4
  %33 = load ptr, ptr %3, align 8, !tbaa !111
  %34 = getelementptr inbounds nuw %struct._Node, ptr %33, i32 0, i32 0
  %35 = getelementptr inbounds nuw %struct.StrNode, ptr %34, i32 0, i32 4
  %36 = load ptr, ptr %35, align 8, !tbaa !12
  %37 = icmp ult ptr %32, %36
  br i1 %37, label %38, label %46

38:                                               ; preds = %31
  %39 = load ptr, ptr %8, align 8, !tbaa !4
  %40 = load i8, ptr %39, align 1, !tbaa !12
  %41 = load ptr, ptr %7, align 8, !tbaa !4
  store i8 %40, ptr %41, align 1, !tbaa !12
  %42 = load ptr, ptr %7, align 8, !tbaa !4
  %43 = getelementptr inbounds nuw i8, ptr %42, i32 1
  store ptr %43, ptr %7, align 8, !tbaa !4
  %44 = load ptr, ptr %8, align 8, !tbaa !4
  %45 = getelementptr inbounds nuw i8, ptr %44, i32 1
  store ptr %45, ptr %8, align 8, !tbaa !4
  br label %31, !llvm.loop !251

46:                                               ; preds = %31
  %47 = load i32, ptr %6, align 4, !tbaa !10
  %48 = add nsw i32 %47, 1
  store i32 %48, ptr %6, align 4, !tbaa !10
  %49 = load ptr, ptr %3, align 8, !tbaa !111
  %50 = getelementptr inbounds nuw %struct._Node, ptr %49, i32 0, i32 0
  %51 = getelementptr inbounds nuw %struct.StrNode, ptr %50, i32 0, i32 4
  %52 = load ptr, ptr %51, align 8, !tbaa !12
  %53 = getelementptr inbounds i8, ptr %52, i32 -1
  store ptr %53, ptr %51, align 8, !tbaa !12
  call void @llvm.lifetime.end.p0(i64 8, ptr %8) #8
  call void @llvm.lifetime.end.p0(i64 8, ptr %7) #8
  br label %57

54:                                               ; preds = %20
  %55 = load ptr, ptr %5, align 8, !tbaa !4
  %56 = getelementptr inbounds nuw i8, ptr %55, i32 1
  store ptr %56, ptr %5, align 8, !tbaa !4
  br label %57

57:                                               ; preds = %54, %46
  br label %13, !llvm.loop !252

58:                                               ; preds = %13
  %59 = load i32, ptr %6, align 4, !tbaa !10
  call void @llvm.lifetime.end.p0(i64 4, ptr %6) #8
  call void @llvm.lifetime.end.p0(i64 8, ptr %5) #8
  ret i32 %59
}