; Function Attrs: nofree norecurse nosync nounwind memory(readwrite, inaccessiblemem: none) uwtable
define internal fastcc void @node_str_remove_char(ptr noundef captures(none) %0) unnamed_addr #12 {
  %2 = getelementptr inbounds nuw i8, ptr %0, i64 16
  %3 = load ptr, ptr %2, align 8, !tbaa !10
  %4 = getelementptr inbounds nuw i8, ptr %0, i64 24
  %5 = load ptr, ptr %4, align 8, !tbaa !10
  %6 = icmp ult ptr %3, %5
  br i1 %6, label %.lr.ph27, label %._crit_edge28

.lr.ph27:                                         ; preds = %1, %17
  %7 = phi ptr [ %18, %17 ], [ %5, %1 ]
  %.01725 = phi i32 [ %.1, %17 ], [ 0, %1 ]
  %.01824 = phi ptr [ %.119, %17 ], [ %3, %1 ]
  %8 = load i8, ptr %.01824, align 1, !tbaa !10
  %9 = icmp eq i8 %8, 92
  %.021 = getelementptr inbounds nuw i8, ptr %.01824, i64 1
  br i1 %9, label %.preheader, label %17

.preheader:                                       ; preds = %.lr.ph27
  %10 = icmp ult ptr %.021, %7
  br i1 %10, label %.lr.ph, label %._crit_edge

.lr.ph:                                           ; preds = %.preheader, %.lr.ph
  %.023 = phi ptr [ %.0, %.lr.ph ], [ %.021, %.preheader ]
  %.01622 = phi ptr [ %12, %.lr.ph ], [ %.01824, %.preheader ]
  %11 = load i8, ptr %.023, align 1, !tbaa !10
  store i8 %11, ptr %.01622, align 1, !tbaa !10
  %12 = getelementptr inbounds nuw i8, ptr %.01622, i64 1
  %.0 = getelementptr inbounds nuw i8, ptr %.023, i64 1
  %13 = load ptr, ptr %4, align 8, !tbaa !10
  %14 = icmp ult ptr %.0, %13
  br i1 %14, label %.lr.ph, label %._crit_edge, !llvm.loop !254

._crit_edge:                                      ; preds = %.lr.ph, %.preheader
  %.lcssa = phi ptr [ %7, %.preheader ], [ %13, %.lr.ph ]
  %15 = add nsw i32 %.01725, 1
  %16 = getelementptr inbounds i8, ptr %.lcssa, i64 -1
  store ptr %16, ptr %4, align 8, !tbaa !10
  br label %17

17:                                               ; preds = %.lr.ph27, %._crit_edge
  %18 = phi ptr [ %16, %._crit_edge ], [ %7, %.lr.ph27 ]
  %.119 = phi ptr [ %.01824, %._crit_edge ], [ %.021, %.lr.ph27 ]
  %.1 = phi i32 [ %15, %._crit_edge ], [ %.01725, %.lr.ph27 ]
  %19 = icmp ult ptr %.119, %18
  br i1 %19, label %.lr.ph27, label %._crit_edge28, !llvm.loop !255

._crit_edge28:                                    ; preds = %17, %1
  ret void
}